target datalayout = "e-m:e-p270:32:32-p271:32:32-p272:64:64-i64:64-i128:128-f80:128-n8:16:32:64-S128"
target triple = "x86_64-pc-linux-gnu"

%"class.std::__cxx11::basic_string" = type { %"struct.std::__cxx11::basic_string<char>::_Alloc_hider", i64, %union.anon }
%"struct.std::__cxx11::basic_string<char>::_Alloc_hider" = type { ptr }
%union.anon = type { i64, [8 x i8] }
%"struct.rocksdb::IOStatsContext" = type <{ i64, i64, i64, i64, i64, i64, i64, i64, i64, i64, i64, i64, i64, %"struct.rocksdb::FileIOByTemperature", i8, [7 x i8] }>
%"struct.rocksdb::FileIOByTemperature" = type { i64, i64, i64, i64, i64, i64 }
%"struct.std::__detail::_Hash_node_base" = type { ptr }
%"struct.std::__detail::_Prime_rehash_policy" = type { float, i64 }
%"class.std::vector.52" = type { %"struct.std::_Vector_base.53" }
%"struct.std::_Vector_base.53" = type { %"struct.std::_Vector_base<unsigned long, std::allocator<unsigned long>>::_Vector_impl" }
%"struct.std::_Vector_base<unsigned long, std::allocator<unsigned long>>::_Vector_impl" = type { %"struct.std::_Vector_base<unsigned long, std::allocator<unsigned long>>::_Vector_impl_data" }
%"struct.std::_Vector_base<unsigned long, std::allocator<unsigned long>>::_Vector_impl_data" = type { ptr, ptr, ptr }
%"class.std::vector.65" = type { %"struct.std::_Vector_base.66" }
%"struct.std::_Vector_base.66" = type { %"struct.std::_Vector_base<std::__cxx11::basic_string<char>, std::allocator<std::__cxx11::basic_string<char>>>::_Vector_impl" }
%"struct.std::_Vector_base<std::__cxx11::basic_string<char>, std::allocator<std::__cxx11::basic_string<char>>>::_Vector_impl" = type { %"struct.std::_Vector_base<std::__cxx11::basic_string<char>, std::allocator<std::__cxx11::basic_string<char>>>::_Vector_impl_data" }
%"struct.std::_Vector_base<std::__cxx11::basic_string<char>, std::allocator<std::__cxx11::basic_string<char>>>::_Vector_impl_data" = type { ptr, ptr, ptr }
%"class.rocksdb::Status" = type { i8, i8, i8, i8, i8, i8, %"class.std::unique_ptr" }
%"class.std::unique_ptr" = type { %"struct.std::__uniq_ptr_data" }
%"struct.std::__uniq_ptr_data" = type { %"class.std::__uniq_ptr_impl" }
%"class.std::__uniq_ptr_impl" = type { %"class.std::tuple" }
%"class.std::tuple" = type { %"struct.std::_Tuple_impl" }
%"struct.std::_Tuple_impl" = type { %"struct.std::_Head_base.4" }
%"struct.std::_Head_base.4" = type { ptr }
%"struct.rocksdb::CompactionServiceResult" = type { %"class.rocksdb::Status", %"class.std::vector.327", i32, %"class.std::__cxx11::basic_string", i64, i64, %"struct.rocksdb::CompactionJobStats" }
%"class.std::vector.327" = type { %"struct.std::_Vector_base.328" }
%"struct.std::_Vector_base.328" = type { %"struct.std::_Vector_base<rocksdb::CompactionServiceOutputFile, std::allocator<rocksdb::CompactionServiceOutputFile>>::_Vector_impl" }
%"struct.std::_Vector_base<rocksdb::CompactionServiceOutputFile, std::allocator<rocksdb::CompactionServiceOutputFile>>::_Vector_impl" = type { %"struct.std::_Vector_base<rocksdb::CompactionServiceOutputFile, std::allocator<rocksdb::CompactionServiceOutputFile>>::_Vector_impl_data" }
%"struct.std::_Vector_base<rocksdb::CompactionServiceOutputFile, std::allocator<rocksdb::CompactionServiceOutputFile>>::_Vector_impl_data" = type { ptr, ptr, ptr }
%"struct.rocksdb::CompactionJobStats" = type { i64, i64, i8, i64, i64, i64, i64, i64, i64, i64, i64, i64, i8, i8, i8, i64, i64, i64, i64, i64, i64, i64, i64, i64, i64, i64, i64, i64, i64, i64, %"class.std::__cxx11::basic_string", %"class.std::__cxx11::basic_string", i64, i64 }
%"class.rocksdb::IOStatus" = type { %"class.rocksdb::Status" }
%"class.std::shared_ptr.101" = type { %"class.std::__shared_ptr.102" }
%"class.std::__shared_ptr.102" = type { ptr, %"class.std::__shared_count" }
%"class.std::__shared_count" = type { ptr }
%"struct.rocksdb::IOOptions" = type <{ %"class.std::chrono::duration", i8, [3 x i8], i32, i8, [7 x i8], %"class.std::unordered_map.211", i8, i8, i8, i8, [4 x i8] }>
%"class.std::chrono::duration" = type { i64 }
%"class.std::unordered_map.211" = type { %"class.std::_Hashtable.212" }
%"class.std::_Hashtable.212" = type { ptr, i64, %"struct.std::__detail::_Hash_node_base", i64, %"struct.std::__detail::_Prime_rehash_policy", ptr }
%"class.rocksdb::CompactionJob" = type { ptr, ptr, %"struct.rocksdb::InternalStats::CompactionStatsFull", ptr, %"struct.rocksdb::MutableDBOptions", ptr, ptr, ptr, i8, i32, %"class.rocksdb::IOStatus", ptr, i32, ptr, %"class.std::__cxx11::basic_string", %"class.std::__cxx11::basic_string", %"struct.rocksdb::FileOptions", ptr, %"class.std::shared_ptr.225", %"class.rocksdb::FileSystemPtr", %"struct.rocksdb::FileOptions", ptr, ptr, ptr, ptr, ptr, ptr, ptr, %"class.std::vector.52", i64, i64, ptr, ptr, %"class.std::shared_ptr.92", ptr, i8, i8, %"class.std::vector.65", i32, %"class.std::__cxx11::basic_string", %"class.std::__cxx11::basic_string", ptr, i32, ptr, ptr, %"class.rocksdb::SeqnoToTimeMapping", i64, i64, i64 }
%"struct.rocksdb::InternalStats::CompactionStatsFull" = type { %"struct.rocksdb::InternalStats::CompactionStats", i8, [7 x i8], %"struct.rocksdb::InternalStats::CompactionStats" }
%"struct.rocksdb::InternalStats::CompactionStats" = type <{ i64, i64, i64, i64, i64, i64, i64, i64, i64, i64, i32, i32, i32, i32, i32, i32, i64, i64, i64, i32, [20 x i32], [4 x i8] }>
%"struct.rocksdb::MutableDBOptions" = type { i32, i32, i32, i8, i64, i64, i64, i64, i32, i32, i64, i32, i64, i64, i8, i64, i32, %"class.std::__cxx11::basic_string" }
%"class.std::shared_ptr.225" = type { %"class.std::__shared_ptr.226" }
%"class.std::__shared_ptr.226" = type { ptr, %"class.std::__shared_count" }
%"class.rocksdb::FileSystemPtr" = type { %"class.std::shared_ptr.101", %"class.std::shared_ptr.225", %"class.std::shared_ptr.228" }
%"class.std::shared_ptr.228" = type { %"class.std::__shared_ptr.229" }
%"class.std::__shared_ptr.229" = type { ptr, %"class.std::__shared_count" }
%"struct.rocksdb::FileOptions" = type <{ %"struct.rocksdb::EnvOptions", %"struct.rocksdb::IOOptions", i8, i8, [6 x i8] }>
%"struct.rocksdb::EnvOptions" = type { i8, i8, i8, i8, i8, i8, i64, i8, i8, i64, i64, ptr }
%"class.std::shared_ptr.92" = type { %"class.std::__shared_ptr.93" }
%"class.std::__shared_ptr.93" = type { ptr, %"class.std::__shared_count" }
%"class.rocksdb::SeqnoToTimeMapping" = type <{ i64, i64, %"class.std::deque.231", i8, [7 x i8] }>
%"class.std::deque.231" = type { %"class.std::_Deque_base.232" }
%"class.std::_Deque_base.232" = type { %"struct.std::_Deque_base<rocksdb::SeqnoToTimeMapping::SeqnoTimePair, std::allocator<rocksdb::SeqnoToTimeMapping::SeqnoTimePair>>::_Deque_impl" }
%"struct.std::_Deque_base<rocksdb::SeqnoToTimeMapping::SeqnoTimePair, std::allocator<rocksdb::SeqnoToTimeMapping::SeqnoTimePair>>::_Deque_impl" = type { %"struct.std::_Deque_base<rocksdb::SeqnoToTimeMapping::SeqnoTimePair, std::allocator<rocksdb::SeqnoToTimeMapping::SeqnoTimePair>>::_Deque_impl_data" }
%"struct.std::_Deque_base<rocksdb::SeqnoToTimeMapping::SeqnoTimePair, std::allocator<rocksdb::SeqnoToTimeMapping::SeqnoTimePair>>::_Deque_impl_data" = type { ptr, i64, %"struct.std::_Deque_iterator.236", %"struct.std::_Deque_iterator.236" }
%"struct.std::_Deque_iterator.236" = type { ptr, ptr, ptr, ptr }
%"class.rocksdb::CompactionServiceCompactionJob" = type { %"class.rocksdb::CompactionJob", %"class.std::__cxx11::basic_string", ptr, ptr }

@_ZN7rocksdb15iostats_contextE = external thread_local global %"struct.rocksdb::IOStatsContext", align 8

; Function Attrs: uwtable
define linkonce_odr hidden noundef ptr @_ZTWN7rocksdb15iostats_contextE() #9 comdat {
  %1 = icmp ne ptr @_ZTHN7rocksdb15iostats_contextE, null
  br i1 %1, label %2, label %3

2:                                                ; preds = %0
  call void @_ZTHN7rocksdb15iostats_contextE()
  br label %3

3:                                                ; preds = %2, %0
  %4 = call align 8 ptr @llvm.threadlocal.address.p0(ptr align 8 @_ZN7rocksdb15iostats_contextE)
  ret ptr %4
}

; Function Attrs: mustprogress uwtable
define void @_ZN7rocksdb30CompactionServiceCompactionJob23RecordCompactionIOStatsEv(ptr noundef nonnull align 8 dereferenceable(1552) %0) unnamed_addr #5 align 2 {
  %2 = alloca ptr, align 8
  store ptr %0, ptr %2, align 8, !tbaa !578
  %3 = load ptr, ptr %2, align 8
  %4 = call ptr @_ZTWN7rocksdb15iostats_contextE()
  %5 = getelementptr inbounds nuw %"struct.rocksdb::IOStatsContext", ptr %4, i32 0, i32 2
  %6 = load i64, ptr %5, align 8, !tbaa !580
  %7 = getelementptr inbounds nuw %"class.rocksdb::CompactionServiceCompactionJob", ptr %3, i32 0, i32 3
  %8 = load ptr, ptr %7, align 8, !tbaa !583
  %9 = getelementptr inbounds nuw %"struct.rocksdb::CompactionServiceResult", ptr %8, i32 0, i32 4
  %10 = load i64, ptr %9, align 8, !tbaa !290
  %11 = add i64 %10, %6
  store i64 %11, ptr %9, align 8, !tbaa !290
  %12 = call ptr @_ZTWN7rocksdb15iostats_contextE()
  %13 = getelementptr inbounds nuw %"struct.rocksdb::IOStatsContext", ptr %12, i32 0, i32 1
  %14 = load i64, ptr %13, align 8, !tbaa !585
  %15 = getelementptr inbounds nuw %"class.rocksdb::CompactionServiceCompactionJob", ptr %3, i32 0, i32 3
  %16 = load ptr, ptr %15, align 8, !tbaa !583
  %17 = getelementptr inbounds nuw %"struct.rocksdb::CompactionServiceResult", ptr %16, i32 0, i32 5
  %18 = load i64, ptr %17, align 8, !tbaa !288
  %19 = add i64 %18, %14
  store i64 %19, ptr %17, align 8, !tbaa !288
  call void @_ZN7rocksdb13CompactionJob23RecordCompactionIOStatsEv(ptr noundef nonnull align 8 dereferenceable(1504) %3)
  ret void
}