; Function Attrs: uwtable
define void @_ZN7rocksdb30CompactionServiceCompactionJob23RecordCompactionIOStatsEv(ptr noundef nonnull align 8 dereferenceable(1552) %0) unnamed_addr #9 align 2 {
  %.not.i = icmp eq ptr @_ZTHN7rocksdb15iostats_contextE, null
  br i1 %.not.i, label %_ZTWN7rocksdb15iostats_contextE.exit.thread, label %10

_ZTWN7rocksdb15iostats_contextE.exit.thread:      ; preds = %1
  %2 = tail call noundef align 8 ptr @llvm.threadlocal.address.p0(ptr align 8 @_ZN7rocksdb15iostats_contextE)
  %3 = getelementptr inbounds nuw i8, ptr %2, i64 16
  %4 = load i64, ptr %3, align 8, !tbaa !567
  %5 = getelementptr inbounds nuw i8, ptr %0, i64 1544
  %6 = load ptr, ptr %5, align 8, !tbaa !570
  %7 = getelementptr inbounds nuw i8, ptr %6, i64 80
  %8 = load i64, ptr %7, align 8, !tbaa !537
  %9 = add i64 %8, %4
  store i64 %9, ptr %7, align 8, !tbaa !537
  br label %_ZTWN7rocksdb15iostats_contextE.exit2

10:                                               ; preds = %1
  tail call void @_ZTHN7rocksdb15iostats_contextE()
  %11 = tail call noundef align 8 ptr @llvm.threadlocal.address.p0(ptr align 8 @_ZN7rocksdb15iostats_contextE)
  %12 = getelementptr inbounds nuw i8, ptr %11, i64 16
  %13 = load i64, ptr %12, align 8, !tbaa !567
  %14 = getelementptr inbounds nuw i8, ptr %0, i64 1544
  %15 = load ptr, ptr %14, align 8, !tbaa !570
  %16 = getelementptr inbounds nuw i8, ptr %15, i64 80
  %17 = load i64, ptr %16, align 8, !tbaa !537
  %18 = add i64 %17, %13
  store i64 %18, ptr %16, align 8, !tbaa !537
  tail call void @_ZTHN7rocksdb15iostats_contextE()
  %.pre = load ptr, ptr %14, align 8, !tbaa !570
  br label %_ZTWN7rocksdb15iostats_contextE.exit2

_ZTWN7rocksdb15iostats_contextE.exit2:            ; preds = %_ZTWN7rocksdb15iostats_contextE.exit.thread, %10
  %19 = phi ptr [ %6, %_ZTWN7rocksdb15iostats_contextE.exit.thread ], [ %.pre, %10 ]
  %20 = phi ptr [ %2, %_ZTWN7rocksdb15iostats_contextE.exit.thread ], [ %11, %10 ]
  %21 = getelementptr inbounds nuw i8, ptr %20, i64 8
  %22 = load i64, ptr %21, align 8, !tbaa !574
  %23 = getelementptr inbounds nuw i8, ptr %19, i64 88
  %24 = load i64, ptr %23, align 8, !tbaa !534
  %25 = add i64 %24, %22
  store i64 %25, ptr %23, align 8, !tbaa !534
  tail call void @_ZN7rocksdb13CompactionJob23RecordCompactionIOStatsEv(ptr noundef nonnull align 8 dereferenceable(1504) %0)
  ret void
}